; Function Attrs: mustprogress nounwind uwtable
define noundef ptr @_ZNK6icu_7725ScientificNumberFormatter16SuperscriptStyle5cloneEv(ptr nonnull readnone align 8 captures(none) %0) unnamed_addr #5 align 2 {
  %2 = tail call noundef ptr @_ZN6icu_777UMemorynwEm(i64 noundef 8) #7
  %3 = icmp eq ptr %2, null
  br i1 %3, label %5, label %4

4:                                                ; preds = %1
  store ptr getelementptr inbounds nuw inrange(-16, 40) (i8, ptr @_ZTVN6icu_7725ScientificNumberFormatter16SuperscriptStyleE, i64 16), ptr %2, align 8, !tbaa !3
  br label %5

5:                                                ; preds = %4, %1
  ret ptr %2
}